target datalayout = "e-m:e-p270:32:32-p271:32:32-p272:64:64-i64:64-i128:128-f80:128-n8:16:32:64-S128"
target triple = "x86_64-pc-linux-gnu"

%struct.b2BodyId = type { i32, i16, i16 }
%struct.b2Vec2 = type { float, float }
%struct.b2BodyArray = type { ptr, i32, i32 }
%struct.b2World = type { %struct.b2ArenaAllocator, %struct.b2BroadPhase, %struct.b2ConstraintGraph, %struct.b2IdPool, %struct.b2BodyArray, %struct.b2IdPool, %struct.b2SolverSetArray, %struct.b2IdPool, %struct.b2JointArray, %struct.b2IdPool, %struct.b2ContactArray, %struct.b2IdPool, %struct.b2IslandArray, %struct.b2IdPool, %struct.b2IdPool, %struct.b2ShapeArray, %struct.b2ChainShapeArray, %struct.b2SensorArray, %struct.b2TaskContextArray, %struct.b2SensorTaskContextArray, %struct.b2BodyMoveEventArray, %struct.b2SensorBeginTouchEventArray, %struct.b2ContactBeginTouchEventArray, [2 x %struct.b2SensorEndTouchEventArray], [2 x %struct.b2ContactEndTouchEventArray], i32, %struct.b2ContactHitEventArray, %struct.b2BitSet, %struct.b2BitSet, %struct.b2BitSet, i64, i32, %struct.b2Vec2, float, float, float, float, float, float, float, float, ptr, ptr, i16, %struct.b2Profile, ptr, ptr, ptr, ptr, i32, ptr, ptr, ptr, ptr, ptr, float, i32, i32, i16, i8, i8, i8, i8, i8, i8 }
%struct.b2ArenaAllocator = type { ptr, i32, i32, i32, i32, %struct.b2ArenaEntryArray }
%struct.b2ArenaEntryArray = type { ptr, i32, i32 }
%struct.b2BroadPhase = type { [3 x %struct.b2DynamicTree], i32, %struct.b2HashSet, %struct.b2IntArray, ptr, ptr, i32, %struct.b2AtomicInt, %struct.b2HashSet }
%struct.b2DynamicTree = type { ptr, i32, i32, i32, i32, i32, ptr, ptr, ptr, ptr, i32 }
%struct.b2IntArray = type { ptr, i32, i32 }
%struct.b2AtomicInt = type { i32 }
%struct.b2HashSet = type { ptr, i32, i32 }
%struct.b2ConstraintGraph = type { [12 x %struct.b2GraphColor] }
%struct.b2GraphColor = type { %struct.b2BitSet, %struct.b2ContactSimArray, %struct.b2JointSimArray, %union.anon }
%struct.b2ContactSimArray = type { ptr, i32, i32 }
%struct.b2JointSimArray = type { ptr, i32, i32 }
%union.anon = type { ptr }
%struct.b2SolverSetArray = type { ptr, i32, i32 }
%struct.b2JointArray = type { ptr, i32, i32 }
%struct.b2ContactArray = type { ptr, i32, i32 }
%struct.b2IslandArray = type { ptr, i32, i32 }
%struct.b2IdPool = type { %struct.b2IntArray, i32 }
%struct.b2ShapeArray = type { ptr, i32, i32 }
%struct.b2ChainShapeArray = type { ptr, i32, i32 }
%struct.b2SensorArray = type { ptr, i32, i32 }
%struct.b2TaskContextArray = type { ptr, i32, i32 }
%struct.b2SensorTaskContextArray = type { ptr, i32, i32 }
%struct.b2BodyMoveEventArray = type { ptr, i32, i32 }
%struct.b2SensorBeginTouchEventArray = type { ptr, i32, i32 }
%struct.b2ContactBeginTouchEventArray = type { ptr, i32, i32 }
%struct.b2SensorEndTouchEventArray = type { ptr, i32, i32 }
%struct.b2ContactEndTouchEventArray = type { ptr, i32, i32 }
%struct.b2ContactHitEventArray = type { ptr, i32, i32 }
%struct.b2BitSet = type { ptr, i32, i32 }
%struct.b2Profile = type { float, float, float, float, float, float, float, float, float, float, float, float, float, float, float, float, float, float, float, float, float, float }
%struct.b2Body = type { [32 x i8], ptr, i32, i32, i32, i32, i32, i32, i32, i32, i32, i32, i32, i32, float, float, float, float, i32, i32, i32, i16, i8, i8, i8, i8 }
%struct.b2Shape = type { i32, i32, i32, i32, i32, i32, float, float, float, float, float, i32, %struct.b2AABB, %struct.b2AABB, %struct.b2Vec2, i32, %struct.b2Filter, ptr, i32, %union.anon.0, i16, i8, i8, i8, i8 }
%struct.b2AABB = type { %struct.b2Vec2, %struct.b2Vec2 }
%struct.b2Filter = type { i64, i64, i32 }
%union.anon.0 = type { %struct.b2Polygon }
%struct.b2Polygon = type { [8 x %struct.b2Vec2], [8 x %struct.b2Vec2], %struct.b2Vec2, float, i32 }
%struct.b2ShapeId = type { i32, i16, i16 }

; Function Attrs: inlinehint nounwind uwtable
define internal ptr @b2BodyArray_Get(ptr noundef %0, i32 noundef %1) #3 {
  %3 = alloca ptr, align 8
  %4 = alloca i32, align 4
  store ptr %0, ptr %3, align 8, !tbaa !12
  store i32 %1, ptr %4, align 4, !tbaa !3
  %5 = load ptr, ptr %3, align 8, !tbaa !12
  %6 = getelementptr inbounds nuw %struct.b2BodyArray, ptr %5, i32 0, i32 0
  %7 = load ptr, ptr %6, align 8, !tbaa !7
  %8 = load i32, ptr %4, align 4, !tbaa !3
  %9 = sext i32 %8 to i64
  %10 = getelementptr inbounds %struct.b2Body, ptr %7, i64 %9
  ret ptr %10
}

; Function Attrs: inlinehint nounwind uwtable
define internal ptr @b2ShapeArray_Get(ptr noundef %0, i32 noundef %1) #3 {
  %3 = alloca ptr, align 8
  %4 = alloca i32, align 4
  store ptr %0, ptr %3, align 8, !tbaa !12
  store i32 %1, ptr %4, align 4, !tbaa !3
  %5 = load ptr, ptr %3, align 8, !tbaa !12
  %6 = getelementptr inbounds nuw %struct.b2ShapeArray, ptr %5, i32 0, i32 0
  %7 = load ptr, ptr %6, align 8, !tbaa !210
  %8 = load i32, ptr %4, align 4, !tbaa !3
  %9 = sext i32 %8 to i64
  %10 = getelementptr inbounds %struct.b2Shape, ptr %7, i64 %9
  ret ptr %10
}

; Function Attrs: nounwind uwtable
define hidden ptr @b2GetBodyFullId(ptr noundef %0, i64 %1) #0 {
  %3 = alloca %struct.b2BodyId, align 4
  %4 = alloca ptr, align 8
  store i64 %1, ptr %3, align 4
  store ptr %0, ptr %4, align 8, !tbaa !24
  %5 = load ptr, ptr %4, align 8, !tbaa !24
  %6 = getelementptr inbounds nuw %struct.b2World, ptr %5, i32 0, i32 4
  %7 = getelementptr inbounds nuw %struct.b2BodyId, ptr %3, i32 0, i32 0
  %8 = load i32, ptr %7, align 4, !tbaa !26
  %9 = sub nsw i32 %8, 1
  %10 = call ptr @b2BodyArray_Get(ptr noundef %6, i32 noundef %9)
  ret ptr %10
}

; Function Attrs: nounwind uwtable
define i32 @b2Body_GetShapes(i64 %0, ptr noundef %1, i32 noundef %2) #0 {
  %4 = alloca %struct.b2BodyId, align 4
  %5 = alloca ptr, align 8
  %6 = alloca i32, align 4
  %7 = alloca ptr, align 8
  %8 = alloca ptr, align 8
  %9 = alloca i32, align 4
  %10 = alloca i32, align 4
  %11 = alloca ptr, align 8
  %12 = alloca %struct.b2ShapeId, align 4
  store i64 %0, ptr %4, align 4
  store ptr %1, ptr %5, align 8, !tbaa !280
  store i32 %2, ptr %6, align 4, !tbaa !3
  call void @llvm.lifetime.start.p0(i64 8, ptr %7) #8
  %13 = getelementptr inbounds nuw %struct.b2BodyId, ptr %4, i32 0, i32 1
  %14 = load i16, ptr %13, align 4, !tbaa !87
  %15 = zext i16 %14 to i32
  %16 = call ptr @b2GetWorld(i32 noundef %15)
  store ptr %16, ptr %7, align 8, !tbaa !24
  call void @llvm.lifetime.start.p0(i64 8, ptr %8) #8
  %17 = load ptr, ptr %7, align 8, !tbaa !24
  %18 = load i64, ptr %4, align 4
  %19 = call ptr @b2GetBodyFullId(ptr noundef %17, i64 %18)
  store ptr %19, ptr %8, align 8, !tbaa !29
  call void @llvm.lifetime.start.p0(i64 4, ptr %9) #8
  %20 = load ptr, ptr %8, align 8, !tbaa !29
  %21 = getelementptr inbounds nuw %struct.b2Body, ptr %20, i32 0, i32 6
  %22 = load i32, ptr %21, align 8, !tbaa !150
  store i32 %22, ptr %9, align 4, !tbaa !3
  call void @llvm.lifetime.start.p0(i64 4, ptr %10) #8
  store i32 0, ptr %10, align 4, !tbaa !3
  br label %23

23:                                               ; preds = %32, %3
  %24 = load i32, ptr %9, align 4, !tbaa !3
  %25 = icmp ne i32 %24, -1
  br i1 %25, label %26, label %30

26:                                               ; preds = %23
  %27 = load i32, ptr %10, align 4, !tbaa !3
  %28 = load i32, ptr %6, align 4, !tbaa !3
  %29 = icmp slt i32 %27, %28
  br label %30

30:                                               ; preds = %26, %23
  %31 = phi i1 [ false, %23 ], [ %29, %26 ]
  br i1 %31, label %32, label %58

32:                                               ; preds = %30
  call void @llvm.lifetime.start.p0(i64 8, ptr %11) #8
  %33 = load ptr, ptr %7, align 8, !tbaa !24
  %34 = getelementptr inbounds nuw %struct.b2World, ptr %33, i32 0, i32 15
  %35 = load i32, ptr %9, align 4, !tbaa !3
  %36 = call ptr @b2ShapeArray_Get(ptr noundef %34, i32 noundef %35)
  store ptr %36, ptr %11, align 8, !tbaa !190
  call void @llvm.lifetime.start.p0(i64 8, ptr %12) #8
  %37 = getelementptr inbounds nuw %struct.b2ShapeId, ptr %12, i32 0, i32 0
  %38 = load ptr, ptr %11, align 8, !tbaa !190
  %39 = getelementptr inbounds nuw %struct.b2Shape, ptr %38, i32 0, i32 0
  %40 = load i32, ptr %39, align 8, !tbaa !195
  %41 = add nsw i32 %40, 1
  store i32 %41, ptr %37, align 4, !tbaa !218
  %42 = getelementptr inbounds nuw %struct.b2ShapeId, ptr %12, i32 0, i32 1
  %43 = getelementptr inbounds nuw %struct.b2BodyId, ptr %4, i32 0, i32 1
  %44 = load i16, ptr %43, align 4, !tbaa !87
  store i16 %44, ptr %42, align 4, !tbaa !220
  %45 = getelementptr inbounds nuw %struct.b2ShapeId, ptr %12, i32 0, i32 2
  %46 = load ptr, ptr %11, align 8, !tbaa !190
  %47 = getelementptr inbounds nuw %struct.b2Shape, ptr %46, i32 0, i32 20
  %48 = load i16, ptr %47, align 4, !tbaa !221
  store i16 %48, ptr %45, align 2, !tbaa !222
  %49 = load ptr, ptr %5, align 8, !tbaa !280
  %50 = load i32, ptr %10, align 4, !tbaa !3
  %51 = sext i32 %50 to i64
  %52 = getelementptr inbounds %struct.b2ShapeId, ptr %49, i64 %51
  call void @llvm.memcpy.p0.p0.i64(ptr align 4 %52, ptr align 4 %12, i64 8, i1 false), !tbaa.struct !95
  %53 = load i32, ptr %10, align 4, !tbaa !3
  %54 = add nsw i32 %53, 1
  store i32 %54, ptr %10, align 4, !tbaa !3
  %55 = load ptr, ptr %11, align 8, !tbaa !190
  %56 = getelementptr inbounds nuw %struct.b2Shape, ptr %55, i32 0, i32 3
  %57 = load i32, ptr %56, align 4, !tbaa !196
  store i32 %57, ptr %9, align 4, !tbaa !3
  call void @llvm.lifetime.end.p0(i64 8, ptr %12) #8
  call void @llvm.lifetime.end.p0(i64 8, ptr %11) #8
  br label %23, !llvm.loop !282

58:                                               ; preds = %30
  %59 = load i32, ptr %10, align 4, !tbaa !3
  call void @llvm.lifetime.end.p0(i64 4, ptr %10) #8
  call void @llvm.lifetime.end.p0(i64 4, ptr %9) #8
  call void @llvm.lifetime.end.p0(i64 8, ptr %8) #8
  call void @llvm.lifetime.end.p0(i64 8, ptr %7) #8
  ret i32 %59
}