; Function Attrs: nounwind uwtable
define i32 @b2Body_GetShapes(i64 %0, ptr noundef writeonly captures(none) %1, i32 noundef %2) local_unnamed_addr #0 {
  %.sroa.2.0.extract.shift = lshr i64 %0, 32
  %.sroa.2.0.extract.trunc = trunc i64 %.sroa.2.0.extract.shift to i16
  %4 = trunc nuw i64 %.sroa.2.0.extract.shift to i32
  %5 = and i32 %4, 65535
  %6 = tail call ptr @b2GetWorld(i32 noundef %5) #10
  %7 = getelementptr inbounds nuw i8, ptr %6, i64 1032
  %.val.i = load ptr, ptr %7, align 8, !tbaa !10
  %8 = shl i64 %0, 32
  %sext.i = add i64 %8, -4294967296
  %9 = ashr exact i64 %sext.i, 25
  %10 = getelementptr inbounds i8, ptr %.val.i, i64 %9
  %11 = getelementptr inbounds nuw i8, ptr %10, i64 56
  %.017 = load i32, ptr %11, align 4, !tbaa !164
  %12 = icmp ne i32 %.017, -1
  %13 = icmp sgt i32 %2, 0
  %14 = and i1 %12, %13
  br i1 %14, label %.lr.ph, label %._crit_edge

.lr.ph:                                           ; preds = %3
  %15 = getelementptr inbounds nuw i8, ptr %6, i64 1256
  %.val = load ptr, ptr %15, align 8, !tbaa !165
  %16 = zext nneg i32 %2 to i64
  br label %17

17:                                               ; preds = %.lr.ph, %17
  %indvars.iv = phi i64 [ 0, %.lr.ph ], [ %indvars.iv.next, %17 ]
  %.019 = phi i32 [ %.017, %.lr.ph ], [ %.0, %17 ]
  %18 = sext i32 %.019 to i64
  %19 = getelementptr inbounds %struct.b2Shape, ptr %.val, i64 %18
  %20 = load i32, ptr %19, align 8, !tbaa !170
  %21 = add nsw i32 %20, 1
  %22 = getelementptr inbounds nuw i8, ptr %19, i64 276
  %23 = load i16, ptr %22, align 4, !tbaa !186
  %24 = getelementptr inbounds nuw %struct.b2ShapeId, ptr %1, i64 %indvars.iv
  store i32 %21, ptr %24, align 4, !tbaa !164
  %.sroa.4.0..sroa_idx = getelementptr inbounds nuw i8, ptr %24, i64 4
  store i16 %.sroa.2.0.extract.trunc, ptr %.sroa.4.0..sroa_idx, align 4, !tbaa !187
  %.sroa.5.0..sroa_idx = getelementptr inbounds nuw i8, ptr %24, i64 6
  store i16 %23, ptr %.sroa.5.0..sroa_idx, align 2, !tbaa !187
  %indvars.iv.next = add nuw nsw i64 %indvars.iv, 1
  %25 = getelementptr inbounds nuw i8, ptr %19, i64 12
  %.0 = load i32, ptr %25, align 4, !tbaa !164
  %26 = icmp ne i32 %.0, -1
  %27 = icmp samesign ult i64 %indvars.iv.next, %16
  %28 = select i1 %26, i1 %27, i1 false
  br i1 %28, label %17, label %._crit_edge.loopexit, !llvm.loop !223

._crit_edge.loopexit:                             ; preds = %17
  %29 = trunc nuw nsw i64 %indvars.iv.next to i32
  br label %._crit_edge

._crit_edge:                                      ; preds = %._crit_edge.loopexit, %3
  %.016.lcssa = phi i32 [ 0, %3 ], [ %29, %._crit_edge.loopexit ]
  ret i32 %.016.lcssa
}